target datalayout = "e-m:e-p270:32:32-p271:32:32-p272:64:64-i64:64-i128:128-f80:128-n8:16:32:64-S128"
target triple = "x86_64-pc-linux-gnu"

%"struct.OpenImageIO::v3_1_0::TypeDesc" = type { i8, i8, i8, i8, i32 }
%"class.std::__cxx11::basic_string" = type { %"struct.std::__cxx11::basic_string<char>::_Alloc_hider", i64, %union.anon.23 }
%"struct.std::__cxx11::basic_string<char>::_Alloc_hider" = type { ptr }
%union.anon.23 = type { i64, [8 x i8] }
%"struct.OpenImageIO::v3_1_0::ROI" = type { i32, i32, i32, i32, i32, i32, i32, i32 }
%"class.OpenImageIO::v3_1_0::ImageSpec" = type { i32, i32, i32, i32, i32, i32, i32, i32, i32, i32, i32, i32, i32, i32, i32, i32, %"struct.OpenImageIO::v3_1_0::TypeDesc", %"class.std::vector", %"class.std::vector.0", i32, i32, i8, %"class.OpenImageIO::v3_1_0::ParamValueList" }
%"class.std::vector" = type { %"struct.std::_Vector_base" }
%"struct.std::_Vector_base" = type { %"struct.std::_Vector_base<OpenImageIO::v3_1_0::TypeDesc, std::allocator<OpenImageIO::v3_1_0::TypeDesc>>::_Vector_impl" }
%"struct.std::_Vector_base<OpenImageIO::v3_1_0::TypeDesc, std::allocator<OpenImageIO::v3_1_0::TypeDesc>>::_Vector_impl" = type { %"struct.std::_Vector_base<OpenImageIO::v3_1_0::TypeDesc, std::allocator<OpenImageIO::v3_1_0::TypeDesc>>::_Vector_impl_data" }
%"struct.std::_Vector_base<OpenImageIO::v3_1_0::TypeDesc, std::allocator<OpenImageIO::v3_1_0::TypeDesc>>::_Vector_impl_data" = type { ptr, ptr, ptr }
%"class.std::vector.0" = type { %"struct.std::_Vector_base.1" }
%"struct.std::_Vector_base.1" = type { %"struct.std::_Vector_base<std::__cxx11::basic_string<char>, std::allocator<std::__cxx11::basic_string<char>>>::_Vector_impl" }
%"struct.std::_Vector_base<std::__cxx11::basic_string<char>, std::allocator<std::__cxx11::basic_string<char>>>::_Vector_impl" = type { %"struct.std::_Vector_base<std::__cxx11::basic_string<char>, std::allocator<std::__cxx11::basic_string<char>>>::_Vector_impl_data" }
%"struct.std::_Vector_base<std::__cxx11::basic_string<char>, std::allocator<std::__cxx11::basic_string<char>>>::_Vector_impl_data" = type { ptr, ptr, ptr }
%"class.OpenImageIO::v3_1_0::ParamValueList" = type { %"class.std::vector.5" }
%"class.std::vector.5" = type { %"struct.std::_Vector_base.6" }
%"struct.std::_Vector_base.6" = type { %"struct.std::_Vector_base<OpenImageIO::v3_1_0::ParamValue, std::allocator<OpenImageIO::v3_1_0::ParamValue>>::_Vector_impl" }
%"struct.std::_Vector_base<OpenImageIO::v3_1_0::ParamValue, std::allocator<OpenImageIO::v3_1_0::ParamValue>>::_Vector_impl" = type { %"struct.std::_Vector_base<OpenImageIO::v3_1_0::ParamValue, std::allocator<OpenImageIO::v3_1_0::ParamValue>>::_Vector_impl_data" }
%"struct.std::_Vector_base<OpenImageIO::v3_1_0::ParamValue, std::allocator<OpenImageIO::v3_1_0::ParamValue>>::_Vector_impl_data" = type { ptr, ptr, ptr }
%"class.OpenImageIO::v3_1_0::ImageOutput" = type { ptr, %"class.OpenImageIO::v3_1_0::ImageSpec", %"class.std::unique_ptr" }
%"class.std::unique_ptr" = type { %"struct.std::__uniq_ptr_data" }
%"struct.std::__uniq_ptr_data" = type { %"class.std::__uniq_ptr_impl" }
%"class.std::__uniq_ptr_impl" = type { %"class.std::tuple" }
%"class.std::tuple" = type { %"struct.std::_Tuple_impl" }
%"struct.std::_Tuple_impl" = type { %"struct.std::_Tuple_impl.10", %"struct.std::_Head_base.11" }
%"struct.std::_Tuple_impl.10" = type { %"struct.std::_Head_base" }
%"struct.std::_Head_base" = type { ptr }
%"struct.std::_Head_base.11" = type { ptr }
%"class.OpenImageIO::v3_1_0::term_pvt::TermOutput" = type <{ %"class.OpenImageIO::v3_1_0::ImageOutput", %"class.OpenImageIO::v3_1_0::ImageBuf", %"class.std::__cxx11::basic_string", %"class.std::__cxx11::basic_string", i8, [7 x i8] }>
%"class.OpenImageIO::v3_1_0::ImageBuf" = type { %"class.std::unique_ptr.12" }
%"class.std::unique_ptr.12" = type { %"struct.std::__uniq_ptr_data.13" }
%"struct.std::__uniq_ptr_data.13" = type { %"class.std::__uniq_ptr_impl.14" }
%"class.std::__uniq_ptr_impl.14" = type { %"class.std::tuple.15" }
%"class.std::tuple.15" = type { %"struct.std::_Tuple_impl.16" }
%"struct.std::_Tuple_impl.16" = type { %"struct.std::_Tuple_impl.17", %"struct.std::_Head_base.19" }
%"struct.std::_Tuple_impl.17" = type { %"struct.std::_Head_base.18" }
%"struct.std::_Head_base.18" = type { ptr }
%"struct.std::_Head_base.19" = type { ptr }
%"class.OpenImageIO::v3_1_0::span" = type { ptr, i64 }

; Function Attrs: mustprogress nounwind uwtable
define linkonce_odr hidden noundef i32 @_ZNK11OpenImageIO6v3_1_03ROI5depthEv(ptr noundef nonnull align 4 dereferenceable(32) %0) #7 comdat align 2 {
  %2 = alloca ptr, align 8
  store ptr %0, ptr %2, align 8, !tbaa !68
  %3 = load ptr, ptr %2, align 8
  %4 = getelementptr inbounds nuw %"struct.OpenImageIO::v3_1_0::ROI", ptr %3, i32 0, i32 5
  %5 = load i32, ptr %4, align 4, !tbaa !76
  %6 = getelementptr inbounds nuw %"struct.OpenImageIO::v3_1_0::ROI", ptr %3, i32 0, i32 4
  %7 = load i32, ptr %6, align 4, !tbaa !75
  %8 = sub nsw i32 %5, %7
  ret i32 %8
}

; Function Attrs: mustprogress nounwind uwtable
define linkonce_odr hidden noundef i32 @_ZNK11OpenImageIO6v3_1_03ROI6heightEv(ptr noundef nonnull align 4 dereferenceable(32) %0) #7 comdat align 2 {
  %2 = alloca ptr, align 8
  store ptr %0, ptr %2, align 8, !tbaa !68
  %3 = load ptr, ptr %2, align 8
  %4 = getelementptr inbounds nuw %"struct.OpenImageIO::v3_1_0::ROI", ptr %3, i32 0, i32 3
  %5 = load i32, ptr %4, align 4, !tbaa !74
  %6 = getelementptr inbounds nuw %"struct.OpenImageIO::v3_1_0::ROI", ptr %3, i32 0, i32 2
  %7 = load i32, ptr %6, align 4, !tbaa !73
  %8 = sub nsw i32 %5, %7
  ret i32 %8
}

; Function Attrs: mustprogress nounwind uwtable
define linkonce_odr hidden noundef i32 @_ZNK11OpenImageIO6v3_1_03ROI5widthEv(ptr noundef nonnull align 4 dereferenceable(32) %0) #7 comdat align 2 {
  %2 = alloca ptr, align 8
  store ptr %0, ptr %2, align 8, !tbaa !68
  %3 = load ptr, ptr %2, align 8
  %4 = getelementptr inbounds nuw %"struct.OpenImageIO::v3_1_0::ROI", ptr %3, i32 0, i32 1
  %5 = load i32, ptr %4, align 4, !tbaa !72
  %6 = getelementptr inbounds nuw %"struct.OpenImageIO::v3_1_0::ROI", ptr %3, i32 0, i32 0
  %7 = load i32, ptr %6, align 4, !tbaa !70
  %8 = sub nsw i32 %5, %7
  ret i32 %8
}

; Function Attrs: mustprogress nounwind uwtable
define linkonce_odr hidden void @_ZN11OpenImageIO6v3_1_03ROIC2Eiiiiiiii(ptr noundef nonnull align 4 dereferenceable(32) %0, i32 noundef %1, i32 noundef %2, i32 noundef %3, i32 noundef %4, i32 noundef %5, i32 noundef %6, i32 noundef %7, i32 noundef %8) unnamed_addr #7 comdat align 2 {
  %10 = alloca ptr, align 8
  %11 = alloca i32, align 4
  %12 = alloca i32, align 4
  %13 = alloca i32, align 4
  %14 = alloca i32, align 4
  %15 = alloca i32, align 4
  %16 = alloca i32, align 4
  %17 = alloca i32, align 4
  %18 = alloca i32, align 4
  store ptr %0, ptr %10, align 8, !tbaa !68
  store i32 %1, ptr %11, align 4, !tbaa !24
  store i32 %2, ptr %12, align 4, !tbaa !24
  store i32 %3, ptr %13, align 4, !tbaa !24
  store i32 %4, ptr %14, align 4, !tbaa !24
  store i32 %5, ptr %15, align 4, !tbaa !24
  store i32 %6, ptr %16, align 4, !tbaa !24
  store i32 %7, ptr %17, align 4, !tbaa !24
  store i32 %8, ptr %18, align 4, !tbaa !24
  %19 = load ptr, ptr %10, align 8
  %20 = getelementptr inbounds nuw %"struct.OpenImageIO::v3_1_0::ROI", ptr %19, i32 0, i32 0
  %21 = load i32, ptr %11, align 4, !tbaa !24
  store i32 %21, ptr %20, align 4, !tbaa !70
  %22 = getelementptr inbounds nuw %"struct.OpenImageIO::v3_1_0::ROI", ptr %19, i32 0, i32 1
  %23 = load i32, ptr %12, align 4, !tbaa !24
  store i32 %23, ptr %22, align 4, !tbaa !72
  %24 = getelementptr inbounds nuw %"struct.OpenImageIO::v3_1_0::ROI", ptr %19, i32 0, i32 2
  %25 = load i32, ptr %13, align 4, !tbaa !24
  store i32 %25, ptr %24, align 4, !tbaa !73
  %26 = getelementptr inbounds nuw %"struct.OpenImageIO::v3_1_0::ROI", ptr %19, i32 0, i32 3
  %27 = load i32, ptr %14, align 4, !tbaa !24
  store i32 %27, ptr %26, align 4, !tbaa !74
  %28 = getelementptr inbounds nuw %"struct.OpenImageIO::v3_1_0::ROI", ptr %19, i32 0, i32 4
  %29 = load i32, ptr %15, align 4, !tbaa !24
  store i32 %29, ptr %28, align 4, !tbaa !75
  %30 = getelementptr inbounds nuw %"struct.OpenImageIO::v3_1_0::ROI", ptr %19, i32 0, i32 5
  %31 = load i32, ptr %16, align 4, !tbaa !24
  store i32 %31, ptr %30, align 4, !tbaa !76
  %32 = getelementptr inbounds nuw %"struct.OpenImageIO::v3_1_0::ROI", ptr %19, i32 0, i32 6
  %33 = load i32, ptr %17, align 4, !tbaa !24
  store i32 %33, ptr %32, align 4, !tbaa !77
  %34 = getelementptr inbounds nuw %"struct.OpenImageIO::v3_1_0::ROI", ptr %19, i32 0, i32 7
  %35 = load i32, ptr %18, align 4, !tbaa !24
  store i32 %35, ptr %34, align 4, !tbaa !78
  ret void
}

; Function Attrs: inlinehint mustprogress nounwind uwtable
define linkonce_odr noundef nonnull align 4 dereferenceable(4) ptr @_ZSt3minIiERKT_S2_S2_(ptr noundef nonnull align 4 dereferenceable(4) %0, ptr noundef nonnull align 4 dereferenceable(4) %1) #4 comdat {
  %3 = alloca ptr, align 8
  %4 = alloca ptr, align 8
  %5 = alloca ptr, align 8
  store ptr %0, ptr %4, align 8, !tbaa !86
  store ptr %1, ptr %5, align 8, !tbaa !86
  %6 = load ptr, ptr %5, align 8, !tbaa !86
  %7 = load i32, ptr %6, align 4, !tbaa !24
  %8 = load ptr, ptr %4, align 8, !tbaa !86
  %9 = load i32, ptr %8, align 4, !tbaa !24
  %10 = icmp slt i32 %7, %9
  br i1 %10, label %11, label %13

11:                                               ; preds = %2
  %12 = load ptr, ptr %5, align 8, !tbaa !86
  store ptr %12, ptr %3, align 8
  br label %15

13:                                               ; preds = %2
  %14 = load ptr, ptr %4, align 8, !tbaa !86
  store ptr %14, ptr %3, align 8
  br label %15

15:                                               ; preds = %13, %11
  %16 = load ptr, ptr %3, align 8
  ret ptr %16
}

; Function Attrs: mustprogress uwtable
define hidden noundef zeroext i1 @_ZN11OpenImageIO6v3_1_08term_pvt10TermOutput10write_tileEiiiNS0_8TypeDescEPKvlll(ptr noundef nonnull align 8 dereferenceable(272) %0, i32 noundef %1, i32 noundef %2, i32 noundef %3, i64 %4, ptr noundef %5, i64 noundef %6, i64 noundef %7, i64 noundef %8) unnamed_addr #6 align 2 {
  %10 = alloca %"struct.OpenImageIO::v3_1_0::TypeDesc", align 4
  %11 = alloca ptr, align 8
  %12 = alloca i32, align 4
  %13 = alloca i32, align 4
  %14 = alloca i32, align 4
  %15 = alloca ptr, align 8
  %16 = alloca i64, align 8
  %17 = alloca i64, align 8
  %18 = alloca i64, align 8
  %19 = alloca %"struct.OpenImageIO::v3_1_0::ROI", align 4
  %20 = alloca i32, align 4
  %21 = alloca i32, align 4
  %22 = alloca i32, align 4
  %23 = alloca i32, align 4
  %24 = alloca i32, align 4
  %25 = alloca i32, align 4
  %26 = alloca %"class.OpenImageIO::v3_1_0::span", align 8
  %27 = alloca %"struct.OpenImageIO::v3_1_0::TypeDesc", align 4
  %28 = alloca %"struct.OpenImageIO::v3_1_0::ROI", align 8
  %29 = alloca %"struct.OpenImageIO::v3_1_0::TypeDesc", align 4
  %30 = alloca %"class.OpenImageIO::v3_1_0::span", align 8
  store i64 %4, ptr %10, align 4
  store ptr %0, ptr %11, align 8, !tbaa !8
  store i32 %1, ptr %12, align 4, !tbaa !24
  store i32 %2, ptr %13, align 4, !tbaa !24
  store i32 %3, ptr %14, align 4, !tbaa !24
  store ptr %5, ptr %15, align 8, !tbaa !100
  store i64 %6, ptr %16, align 8, !tbaa !85
  store i64 %7, ptr %17, align 8, !tbaa !85
  store i64 %8, ptr %18, align 8, !tbaa !85
  %31 = load ptr, ptr %11, align 8
  call void @llvm.lifetime.start.p0(i64 32, ptr %19) #3
  %32 = load i32, ptr %12, align 4, !tbaa !24
  call void @llvm.lifetime.start.p0(i64 4, ptr %20) #3
  %33 = load i32, ptr %12, align 4, !tbaa !24
  %34 = getelementptr inbounds nuw %"class.OpenImageIO::v3_1_0::ImageOutput", ptr %31, i32 0, i32 1
  %35 = getelementptr inbounds nuw %"class.OpenImageIO::v3_1_0::ImageSpec", ptr %34, i32 0, i32 12
  %36 = load i32, ptr %35, align 8, !tbaa !109
  %37 = add nsw i32 %33, %36
  store i32 %37, ptr %20, align 4, !tbaa !24
  call void @llvm.lifetime.start.p0(i64 4, ptr %21) #3
  %38 = getelementptr inbounds nuw %"class.OpenImageIO::v3_1_0::ImageOutput", ptr %31, i32 0, i32 1
  %39 = getelementptr inbounds nuw %"class.OpenImageIO::v3_1_0::ImageSpec", ptr %38, i32 0, i32 0
  %40 = load i32, ptr %39, align 8, !tbaa !102
  %41 = getelementptr inbounds nuw %"class.OpenImageIO::v3_1_0::ImageOutput", ptr %31, i32 0, i32 1
  %42 = getelementptr inbounds nuw %"class.OpenImageIO::v3_1_0::ImageSpec", ptr %41, i32 0, i32 3
  %43 = load i32, ptr %42, align 4, !tbaa !103
  %44 = add nsw i32 %40, %43
  store i32 %44, ptr %21, align 4, !tbaa !24
  %45 = call noundef nonnull align 4 dereferenceable(4) ptr @_ZSt3minIiERKT_S2_S2_(ptr noundef nonnull align 4 dereferenceable(4) %20, ptr noundef nonnull align 4 dereferenceable(4) %21)
  %46 = load i32, ptr %45, align 4, !tbaa !24
  %47 = load i32, ptr %13, align 4, !tbaa !24
  call void @llvm.lifetime.start.p0(i64 4, ptr %22) #3
  %48 = load i32, ptr %13, align 4, !tbaa !24
  %49 = getelementptr inbounds nuw %"class.OpenImageIO::v3_1_0::ImageOutput", ptr %31, i32 0, i32 1
  %50 = getelementptr inbounds nuw %"class.OpenImageIO::v3_1_0::ImageSpec", ptr %49, i32 0, i32 13
  %51 = load i32, ptr %50, align 4, !tbaa !110
  %52 = add nsw i32 %48, %51
  store i32 %52, ptr %22, align 4, !tbaa !24
  call void @llvm.lifetime.start.p0(i64 4, ptr %23) #3
  %53 = getelementptr inbounds nuw %"class.OpenImageIO::v3_1_0::ImageOutput", ptr %31, i32 0, i32 1
  %54 = getelementptr inbounds nuw %"class.OpenImageIO::v3_1_0::ImageSpec", ptr %53, i32 0, i32 1
  %55 = load i32, ptr %54, align 4, !tbaa !111
  %56 = getelementptr inbounds nuw %"class.OpenImageIO::v3_1_0::ImageOutput", ptr %31, i32 0, i32 1
  %57 = getelementptr inbounds nuw %"class.OpenImageIO::v3_1_0::ImageSpec", ptr %56, i32 0, i32 4
  %58 = load i32, ptr %57, align 8, !tbaa !101
  %59 = add nsw i32 %55, %58
  store i32 %59, ptr %23, align 4, !tbaa !24
  %60 = call noundef nonnull align 4 dereferenceable(4) ptr @_ZSt3minIiERKT_S2_S2_(ptr noundef nonnull align 4 dereferenceable(4) %22, ptr noundef nonnull align 4 dereferenceable(4) %23)
  %61 = load i32, ptr %60, align 4, !tbaa !24
  %62 = load i32, ptr %14, align 4, !tbaa !24
  call void @llvm.lifetime.start.p0(i64 4, ptr %24) #3
  %63 = load i32, ptr %14, align 4, !tbaa !24
  %64 = getelementptr inbounds nuw %"class.OpenImageIO::v3_1_0::ImageOutput", ptr %31, i32 0, i32 1
  %65 = getelementptr inbounds nuw %"class.OpenImageIO::v3_1_0::ImageSpec", ptr %64, i32 0, i32 14
  %66 = load i32, ptr %65, align 8, !tbaa !112
  %67 = add nsw i32 %63, %66
  store i32 %67, ptr %24, align 4, !tbaa !24
  call void @llvm.lifetime.start.p0(i64 4, ptr %25) #3
  %68 = getelementptr inbounds nuw %"class.OpenImageIO::v3_1_0::ImageOutput", ptr %31, i32 0, i32 1
  %69 = getelementptr inbounds nuw %"class.OpenImageIO::v3_1_0::ImageSpec", ptr %68, i32 0, i32 2
  %70 = load i32, ptr %69, align 8, !tbaa !113
  %71 = getelementptr inbounds nuw %"class.OpenImageIO::v3_1_0::ImageOutput", ptr %31, i32 0, i32 1
  %72 = getelementptr inbounds nuw %"class.OpenImageIO::v3_1_0::ImageSpec", ptr %71, i32 0, i32 5
  %73 = load i32, ptr %72, align 4, !tbaa !114
  %74 = add nsw i32 %70, %73
  store i32 %74, ptr %25, align 4, !tbaa !24
  %75 = call noundef nonnull align 4 dereferenceable(4) ptr @_ZSt3minIiERKT_S2_S2_(ptr noundef nonnull align 4 dereferenceable(4) %24, ptr noundef nonnull align 4 dereferenceable(4) %25)
  %76 = load i32, ptr %75, align 4, !tbaa !24
  %77 = getelementptr inbounds nuw %"class.OpenImageIO::v3_1_0::ImageOutput", ptr %31, i32 0, i32 1
  %78 = getelementptr inbounds nuw %"class.OpenImageIO::v3_1_0::ImageSpec", ptr %77, i32 0, i32 15
  %79 = load i32, ptr %78, align 4, !tbaa !104
  call void @_ZN11OpenImageIO6v3_1_03ROIC2Eiiiiiiii(ptr noundef nonnull align 4 dereferenceable(32) %19, i32 noundef %32, i32 noundef %46, i32 noundef %47, i32 noundef %61, i32 noundef %62, i32 noundef %76, i32 noundef 0, i32 noundef %79) #3
  call void @llvm.lifetime.end.p0(i64 4, ptr %25) #3
  call void @llvm.lifetime.end.p0(i64 4, ptr %24) #3
  call void @llvm.lifetime.end.p0(i64 4, ptr %23) #3
  call void @llvm.lifetime.end.p0(i64 4, ptr %22) #3
  call void @llvm.lifetime.end.p0(i64 4, ptr %21) #3
  call void @llvm.lifetime.end.p0(i64 4, ptr %20) #3
  call void @llvm.lifetime.start.p0(i64 16, ptr %26) #3
  %80 = load ptr, ptr %15, align 8, !tbaa !100
  call void @llvm.memcpy.p0.p0.i64(ptr align 4 %27, ptr align 4 %10, i64 8, i1 false), !tbaa.struct !83
  %81 = getelementptr inbounds nuw %"class.OpenImageIO::v3_1_0::ImageOutput", ptr %31, i32 0, i32 1
  %82 = getelementptr inbounds nuw %"class.OpenImageIO::v3_1_0::ImageSpec", ptr %81, i32 0, i32 15
  %83 = load i32, ptr %82, align 4, !tbaa !104
  %84 = call noundef i32 @_ZNK11OpenImageIO6v3_1_03ROI5widthEv(ptr noundef nonnull align 4 dereferenceable(32) %19) #3
  %85 = call noundef i32 @_ZNK11OpenImageIO6v3_1_03ROI6heightEv(ptr noundef nonnull align 4 dereferenceable(32) %19) #3
  %86 = call noundef i32 @_ZNK11OpenImageIO6v3_1_03ROI5depthEv(ptr noundef nonnull align 4 dereferenceable(32) %19) #3
  %87 = load i64, ptr %16, align 8, !tbaa !85
  %88 = load i64, ptr %17, align 8, !tbaa !85
  %89 = load i64, ptr %18, align 8, !tbaa !85
  %90 = load i64, ptr %27, align 4
  %91 = call { ptr, i64 } @_ZN11OpenImageIO6v3_1_017cspan_from_bufferEPKvNS0_8TypeDescEiiiilll(ptr noundef %80, i64 %90, i32 noundef %83, i32 noundef %84, i32 noundef %85, i32 noundef %86, i64 noundef %87, i64 noundef %88, i64 noundef %89)
  %92 = getelementptr inbounds nuw { ptr, i64 }, ptr %26, i32 0, i32 0
  %93 = extractvalue { ptr, i64 } %91, 0
  store ptr %93, ptr %92, align 8
  %94 = getelementptr inbounds nuw { ptr, i64 }, ptr %26, i32 0, i32 1
  %95 = extractvalue { ptr, i64 } %91, 1
  store i64 %95, ptr %94, align 8
  %96 = getelementptr inbounds nuw %"class.OpenImageIO::v3_1_0::term_pvt::TermOutput", ptr %31, i32 0, i32 1
  call void @llvm.memcpy.p0.p0.i64(ptr align 4 %28, ptr align 4 %19, i64 32, i1 false), !tbaa.struct !105
  call void @llvm.memcpy.p0.p0.i64(ptr align 4 %29, ptr align 4 %10, i64 8, i1 false), !tbaa.struct !83
  call void @llvm.memcpy.p0.p0.i64(ptr align 8 %30, ptr align 8 %26, i64 16, i1 false), !tbaa.struct !106
  %97 = load i64, ptr %16, align 8, !tbaa !85
  %98 = load i64, ptr %17, align 8, !tbaa !85
  %99 = load i64, ptr %18, align 8, !tbaa !85
  %100 = load i64, ptr %29, align 4
  %101 = getelementptr inbounds nuw { ptr, i64 }, ptr %30, i32 0, i32 0
  %102 = load ptr, ptr %101, align 8
  %103 = getelementptr inbounds nuw { ptr, i64 }, ptr %30, i32 0, i32 1
  %104 = load i64, ptr %103, align 8
  %105 = call noundef zeroext i1 @_ZN11OpenImageIO6v3_1_08ImageBuf10set_pixelsENS0_3ROIENS0_8TypeDescENS0_4spanIKSt4byteLm18446744073709551615EEEPKvlll(ptr noundef nonnull align 8 dereferenceable(16) %96, ptr noundef byval(%"struct.OpenImageIO::v3_1_0::ROI") align 8 %28, i64 %100, ptr %102, i64 %104, ptr noundef null, i64 noundef %97, i64 noundef %98, i64 noundef %99)
  call void @llvm.lifetime.end.p0(i64 16, ptr %26) #3
  call void @llvm.lifetime.end.p0(i64 32, ptr %19) #3
  ret i1 %105
}