; Function Attrs: mustprogress uwtable
define hidden noundef zeroext i1 @_ZN11OpenImageIO6v3_1_08term_pvt10TermOutput10write_tileEiiiNS0_8TypeDescEPKvlll(ptr noundef nonnull align 8 dereferenceable(272) %0, i32 noundef %1, i32 noundef %2, i32 noundef %3, i64 %4, ptr noundef %5, i64 noundef %6, i64 noundef %7, i64 noundef %8) unnamed_addr #6 align 2 {
  %10 = alloca %"struct.OpenImageIO::v3_1_0::ROI", align 8
  %11 = getelementptr inbounds nuw i8, ptr %0, i64 8
  %12 = getelementptr inbounds nuw i8, ptr %0, i64 56
  %13 = load i32, ptr %12, align 8, !tbaa !118
  %14 = add nsw i32 %13, %1
  %15 = load i32, ptr %11, align 8, !tbaa !111
  %16 = getelementptr inbounds nuw i8, ptr %0, i64 20
  %17 = load i32, ptr %16, align 4, !tbaa !112
  %18 = add nsw i32 %17, %15
  %.sroa.speculated28 = tail call i32 @llvm.smin.i32(i32 %18, i32 %14)
  %19 = getelementptr inbounds nuw i8, ptr %0, i64 60
  %20 = load i32, ptr %19, align 4, !tbaa !119
  %21 = add nsw i32 %20, %2
  %22 = getelementptr inbounds nuw i8, ptr %0, i64 12
  %23 = load i32, ptr %22, align 4, !tbaa !120
  %24 = getelementptr inbounds nuw i8, ptr %0, i64 24
  %25 = load i32, ptr %24, align 8, !tbaa !110
  %26 = add nsw i32 %25, %23
  %.sroa.speculated23 = tail call i32 @llvm.smin.i32(i32 %26, i32 %21)
  %27 = getelementptr inbounds nuw i8, ptr %0, i64 64
  %28 = load i32, ptr %27, align 8, !tbaa !121
  %29 = add nsw i32 %28, %3
  %30 = getelementptr inbounds nuw i8, ptr %0, i64 16
  %31 = load i32, ptr %30, align 8, !tbaa !122
  %32 = getelementptr inbounds nuw i8, ptr %0, i64 28
  %33 = load i32, ptr %32, align 4, !tbaa !123
  %34 = add nsw i32 %33, %31
  %.sroa.speculated = tail call i32 @llvm.smin.i32(i32 %34, i32 %29)
  %35 = getelementptr inbounds nuw i8, ptr %0, i64 68
  %36 = load i32, ptr %35, align 4, !tbaa !113
  %37 = sub nsw i32 %.sroa.speculated28, %1
  %38 = sub nsw i32 %.sroa.speculated23, %2
  %39 = sub nsw i32 %.sroa.speculated, %3
  %40 = tail call { ptr, i64 } @_ZN11OpenImageIO6v3_1_017cspan_from_bufferEPKvNS0_8TypeDescEiiiilll(ptr noundef %5, i64 %4, i32 noundef %36, i32 noundef %37, i32 noundef %38, i32 noundef %39, i64 noundef %6, i64 noundef %7, i64 noundef %8)
  %41 = extractvalue { ptr, i64 } %40, 0
  %42 = extractvalue { ptr, i64 } %40, 1
  %43 = getelementptr inbounds nuw i8, ptr %0, i64 184
  store i32 %1, ptr %10, align 8, !tbaa !114
  %.sroa.5.0..sroa_idx = getelementptr inbounds nuw i8, ptr %10, i64 4
  store i32 %.sroa.speculated28, ptr %.sroa.5.0..sroa_idx, align 4, !tbaa !114
  %.sroa.7.0..sroa_idx = getelementptr inbounds nuw i8, ptr %10, i64 8
  store i32 %2, ptr %.sroa.7.0..sroa_idx, align 8, !tbaa !114
  %.sroa.9.0..sroa_idx = getelementptr inbounds nuw i8, ptr %10, i64 12
  store i32 %.sroa.speculated23, ptr %.sroa.9.0..sroa_idx, align 4, !tbaa !114
  %.sroa.11.0..sroa_idx = getelementptr inbounds nuw i8, ptr %10, i64 16
  store i32 %3, ptr %.sroa.11.0..sroa_idx, align 8, !tbaa !114
  %.sroa.13.0..sroa_idx = getelementptr inbounds nuw i8, ptr %10, i64 20
  store i32 %.sroa.speculated, ptr %.sroa.13.0..sroa_idx, align 4, !tbaa !114
  %.sroa.15.0..sroa_idx = getelementptr inbounds nuw i8, ptr %10, i64 24
  store i32 0, ptr %.sroa.15.0..sroa_idx, align 8, !tbaa !114
  %.sroa.16.0..sroa_idx = getelementptr inbounds nuw i8, ptr %10, i64 28
  store i32 %36, ptr %.sroa.16.0..sroa_idx, align 4, !tbaa !114
  %44 = tail call noundef zeroext i1 @_ZN11OpenImageIO6v3_1_08ImageBuf10set_pixelsENS0_3ROIENS0_8TypeDescENS0_4spanIKSt4byteLm18446744073709551615EEEPKvlll(ptr noundef nonnull align 8 dereferenceable(16) %43, ptr noundef nonnull byval(%"struct.OpenImageIO::v3_1_0::ROI") align 8 %10, i64 %4, ptr %41, i64 %42, ptr noundef null, i64 noundef %6, i64 noundef %7, i64 noundef %8)
  ret i1 %44
}